; Function Attrs: mustprogress nounwind uwtable
define hidden void @_ZN4ncnn22ModelBinFromDataReaderD0Ev(ptr noundef nonnull align 8 dereferenceable(16) %0) unnamed_addr #2 align 2 {
  store ptr getelementptr inbounds inrange(-16, 48) (i8, ptr @_ZTVN4ncnn22ModelBinFromDataReaderE, i64 16), ptr %0, align 8
  %2 = getelementptr inbounds nuw i8, ptr %0, i64 8
  %3 = load ptr, ptr %2, align 8
  %4 = icmp eq ptr %3, null
  br i1 %4, label %_ZN4ncnn22ModelBinFromDataReaderD2Ev.exit, label %5

5:                                                ; preds = %1
  tail call void @_ZdlPvm(ptr noundef nonnull %3, i64 noundef 8) #16
  br label %_ZN4ncnn22ModelBinFromDataReaderD2Ev.exit

_ZN4ncnn22ModelBinFromDataReaderD2Ev.exit:        ; preds = %1, %5
  tail call void @_ZdlPvm(ptr noundef nonnull %0, i64 noundef 16) #16
  ret void
}